target datalayout = "e-m:e-p270:32:32-p271:32:32-p272:64:64-i64:64-i128:128-f80:128-n8:16:32:64-S128"
target triple = "x86_64-pc-linux-gnu"

%"struct.boost::urls::detail::url_impl" = type <{ ptr, [8 x i64], [7 x i64], i64, i64, [16 x i8], i16, [2 x i8], i32, i16, i8, [5 x i8] }>
%"class.boost::urls::detail::path_ref" = type { ptr, ptr, i64, i64, i64 }

; Function Attrs: mustprogress nounwind uwtable
define noundef i64 @_ZNK5boost4urls6detail8url_impl6offsetEi(ptr noundef nonnull align 8 dereferenceable(171) %0, i32 noundef %1) #1 align 2 {
  %3 = alloca ptr, align 8
  %4 = alloca i32, align 4
  store ptr %0, ptr %3, align 8, !tbaa !3
  store i32 %1, ptr %4, align 4, !tbaa !16
  %5 = load ptr, ptr %3, align 8
  %6 = load i32, ptr %4, align 4, !tbaa !16
  %7 = icmp eq i32 %6, -1
  br i1 %7, label %8, label %9

8:                                                ; preds = %2
  br label %15

9:                                                ; preds = %2
  %10 = getelementptr inbounds nuw %"struct.boost::urls::detail::url_impl", ptr %5, i32 0, i32 1
  %11 = load i32, ptr %4, align 4, !tbaa !16
  %12 = sext i32 %11 to i64
  %13 = getelementptr inbounds [8 x i64], ptr %10, i64 0, i64 %12
  %14 = load i64, ptr %13, align 8, !tbaa !8
  br label %15

15:                                               ; preds = %9, %8
  %16 = phi i64 [ 0, %8 ], [ %14, %9 ]
  ret i64 %16
}

; Function Attrs: mustprogress nounwind uwtable
define hidden noundef ptr @_ZNK5boost4urls6detail8path_ref4dataEv(ptr noundef nonnull align 8 dereferenceable(40) %0) #1 align 2 {
  %2 = alloca ptr, align 8
  %3 = alloca ptr, align 8
  store ptr %0, ptr %3, align 8, !tbaa !3
  %4 = load ptr, ptr %3, align 8
  %5 = getelementptr inbounds nuw %"class.boost::urls::detail::path_ref", ptr %4, i32 0, i32 0
  %6 = load ptr, ptr %5, align 8, !tbaa !42
  %7 = icmp ne ptr %6, null
  br i1 %7, label %8, label %17

8:                                                ; preds = %1
  %9 = getelementptr inbounds nuw %"class.boost::urls::detail::path_ref", ptr %4, i32 0, i32 0
  %10 = load ptr, ptr %9, align 8, !tbaa !42
  %11 = getelementptr inbounds nuw %"struct.boost::urls::detail::url_impl", ptr %10, i32 0, i32 0
  %12 = load ptr, ptr %11, align 8, !tbaa !36
  %13 = getelementptr inbounds nuw %"class.boost::urls::detail::path_ref", ptr %4, i32 0, i32 0
  %14 = load ptr, ptr %13, align 8, !tbaa !42
  %15 = call noundef i64 @_ZNK5boost4urls6detail8url_impl6offsetEi(ptr noundef nonnull align 8 dereferenceable(171) %14, i32 noundef 4) #5
  %16 = getelementptr inbounds nuw i8, ptr %12, i64 %15
  store ptr %16, ptr %2, align 8
  br label %20

17:                                               ; preds = %1
  %18 = getelementptr inbounds nuw %"class.boost::urls::detail::path_ref", ptr %4, i32 0, i32 1
  %19 = load ptr, ptr %18, align 8, !tbaa !44
  store ptr %19, ptr %2, align 8
  br label %20

20:                                               ; preds = %17, %8
  %21 = load ptr, ptr %2, align 8
  ret ptr %21
}