; Function Attrs: mustprogress nofree norecurse nosync nounwind willreturn memory(read, inaccessiblemem: none) uwtable
define hidden noundef ptr @_ZNK5boost4urls6detail8path_ref4dataEv(ptr nocapture noundef nonnull readonly align 8 dereferenceable(40) %0) local_unnamed_addr #10 align 2 {
  %2 = load ptr, ptr %0, align 8, !tbaa !43
  %.not = icmp eq ptr %2, null
  br i1 %.not, label %8, label %3

3:                                                ; preds = %1
  %4 = load ptr, ptr %2, align 8, !tbaa !31
  %5 = getelementptr inbounds i8, ptr %2, i64 40
  %6 = load i64, ptr %5, align 8, !tbaa !13
  %7 = getelementptr inbounds nuw i8, ptr %4, i64 %6
  br label %11

8:                                                ; preds = %1
  %9 = getelementptr inbounds nuw i8, ptr %0, i64 8
  %10 = load ptr, ptr %9, align 8, !tbaa !45
  br label %11

11:                                               ; preds = %8, %3
  %.0 = phi ptr [ %7, %3 ], [ %10, %8 ]
  ret ptr %.0
}